target datalayout = "e-m:e-p270:32:32-p271:32:32-p272:64:64-i64:64-i128:128-f80:128-n8:16:32:64-S128"
target triple = "x86_64-pc-linux-gnu"

%struct._stat_tap_table_ui = type { i32, ptr, ptr, ptr, ptr, ptr, ptr, ptr, ptr, i64, ptr, i64, ptr, ptr, i32 }
%struct._table_stat_t = type { ptr, %struct._stat_data_t }
%struct._stat_data_t = type { ptr, ptr }
%struct._GString = type { ptr, i64, i64 }

@.str = private unnamed_addr constant [3 x i8] c"%s\00", align 1
@.str.1 = private unnamed_addr constant [26 x i8] c"Couldn't register tap: %s\00", align 1

; Function Attrs: null_pointer_is_valid sspstrong uwtable
define internal void @init_stat_table(ptr noundef %0, ptr noundef %1) #0 {
  %3 = alloca ptr, align 8
  %4 = alloca ptr, align 8
  %5 = alloca ptr, align 8
  %6 = alloca ptr, align 8
  %7 = alloca i64, align 8
  %8 = alloca i64, align 8
  %9 = alloca ptr, align 8
  %10 = alloca ptr, align 8
  store ptr %0, ptr %3, align 8
  store ptr %1, ptr %4, align 8
  call void @llvm.lifetime.start.p0(i64 8, ptr %5) #7
  call void @llvm.lifetime.start.p0(i64 8, ptr %6) #7
  call void @llvm.lifetime.start.p0(i64 8, ptr %7) #7
  store i64 1, ptr %7, align 8
  call void @llvm.lifetime.start.p0(i64 8, ptr %8) #7
  store i64 24, ptr %8, align 8
  call void @llvm.lifetime.start.p0(i64 8, ptr %9) #7
  %11 = load i64, ptr %8, align 8
  %12 = icmp eq i64 %11, 1
  br i1 %12, label %13, label %16

13:                                               ; preds = %2
  %14 = load i64, ptr %7, align 8
  %15 = call noalias ptr @g_malloc0(i64 noundef %14) #9
  store ptr %15, ptr %9, align 8
  br label %37

16:                                               ; preds = %2
  %17 = load i64, ptr %7, align 8
  %18 = call i1 @llvm.is.constant.i64(i64 %17)
  br i1 %18, label %19, label %32

19:                                               ; preds = %16
  %20 = load i64, ptr %8, align 8
  %21 = icmp eq i64 %20, 0
  br i1 %21, label %27, label %22

22:                                               ; preds = %19
  %23 = load i64, ptr %7, align 8
  %24 = load i64, ptr %8, align 8
  %25 = udiv i64 -1, %24
  %26 = icmp ule i64 %23, %25
  br i1 %26, label %27, label %32

27:                                               ; preds = %22, %19
  %28 = load i64, ptr %7, align 8
  %29 = load i64, ptr %8, align 8
  %30 = mul i64 %28, %29
  %31 = call noalias ptr @g_malloc0(i64 noundef %30) #9
  store ptr %31, ptr %9, align 8
  br label %36

32:                                               ; preds = %22, %16
  %33 = load i64, ptr %7, align 8
  %34 = load i64, ptr %8, align 8
  %35 = call noalias ptr @g_malloc0_n(i64 noundef %33, i64 noundef %34) #10
  store ptr %35, ptr %9, align 8
  br label %36

36:                                               ; preds = %32, %27
  br label %37

37:                                               ; preds = %36, %13
  %38 = load ptr, ptr %9, align 8
  store ptr %38, ptr %10, align 8
  call void @llvm.lifetime.end.p0(i64 8, ptr %9) #7
  call void @llvm.lifetime.end.p0(i64 8, ptr %8) #7
  call void @llvm.lifetime.end.p0(i64 8, ptr %7) #7
  %39 = load ptr, ptr %10, align 8
  store ptr %39, ptr %6, align 8
  %40 = load ptr, ptr %4, align 8
  %41 = call noalias ptr @g_strdup(ptr noundef %40)
  %42 = load ptr, ptr %6, align 8
  %43 = getelementptr inbounds nuw %struct._table_stat_t, ptr %42, i32 0, i32 0
  store ptr %41, ptr %43, align 8
  %44 = load ptr, ptr %3, align 8
  %45 = load ptr, ptr %6, align 8
  %46 = getelementptr inbounds nuw %struct._table_stat_t, ptr %45, i32 0, i32 1
  %47 = getelementptr inbounds nuw %struct._stat_data_t, ptr %46, i32 0, i32 0
  store ptr %44, ptr %47, align 8
  %48 = load ptr, ptr %6, align 8
  %49 = load ptr, ptr %6, align 8
  %50 = getelementptr inbounds nuw %struct._table_stat_t, ptr %49, i32 0, i32 1
  %51 = getelementptr inbounds nuw %struct._stat_data_t, ptr %50, i32 0, i32 1
  store ptr %48, ptr %51, align 8
  %52 = load ptr, ptr %3, align 8
  %53 = getelementptr inbounds nuw %struct._stat_tap_table_ui, ptr %52, i32 0, i32 4
  %54 = load ptr, ptr %53, align 8
  %55 = load ptr, ptr %3, align 8
  call void %54(ptr noundef %55)
  %56 = load ptr, ptr %3, align 8
  %57 = getelementptr inbounds nuw %struct._stat_tap_table_ui, ptr %56, i32 0, i32 2
  %58 = load ptr, ptr %57, align 8
  %59 = load ptr, ptr %6, align 8
  %60 = getelementptr inbounds nuw %struct._table_stat_t, ptr %59, i32 0, i32 1
  %61 = load ptr, ptr %4, align 8
  %62 = load ptr, ptr %3, align 8
  %63 = getelementptr inbounds nuw %struct._stat_tap_table_ui, ptr %62, i32 0, i32 5
  %64 = load ptr, ptr %63, align 8
  %65 = call ptr @register_tap_listener(ptr noundef %58, ptr noundef %60, ptr noundef %61, i32 noundef 0, ptr noundef null, ptr noundef %64, ptr noundef @simple_draw, ptr noundef @simple_finish)
  store ptr %65, ptr %5, align 8
  %66 = load ptr, ptr %5, align 8
  %67 = icmp ne ptr %66, null
  br i1 %67, label %68, label %74

68:                                               ; preds = %37
  %69 = load ptr, ptr %5, align 8
  %70 = getelementptr inbounds nuw %struct._GString, ptr %69, i32 0, i32 0
  %71 = load ptr, ptr %70, align 8
  call void (ptr, ...) @cmdarg_err(ptr noundef @.str.1, ptr noundef %71)
  %72 = load ptr, ptr %5, align 8
  %73 = call ptr @g_string_free(ptr noundef %72, i32 noundef 1)
  call void @exit(i32 noundef 1) #8
  unreachable

74:                                               ; preds = %37
  call void @llvm.lifetime.end.p0(i64 8, ptr %6) #7
  call void @llvm.lifetime.end.p0(i64 8, ptr %5) #7
  ret void
}

; Function Attrs: null_pointer_is_valid sspstrong uwtable
define internal void @simple_stat_init(ptr noundef %0, ptr noundef %1) #0 {
  %3 = alloca ptr, align 8
  %4 = alloca ptr, align 8
  %5 = alloca ptr, align 8
  %6 = alloca ptr, align 8
  %7 = alloca ptr, align 8
  store ptr %0, ptr %3, align 8
  store ptr %1, ptr %4, align 8
  call void @llvm.lifetime.start.p0(i64 8, ptr %5) #7
  %8 = load ptr, ptr %4, align 8
  store ptr %8, ptr %5, align 8
  call void @llvm.lifetime.start.p0(i64 8, ptr %6) #7
  store ptr null, ptr %6, align 8
  call void @llvm.lifetime.start.p0(i64 8, ptr %7) #7
  store ptr null, ptr %7, align 8
  %9 = load ptr, ptr %5, align 8
  %10 = load ptr, ptr %3, align 8
  call void @stat_tap_get_filter(ptr noundef %9, ptr noundef %10, ptr noundef %6, ptr noundef %7)
  %11 = load ptr, ptr %7, align 8
  %12 = icmp ne ptr %11, null
  br i1 %12, label %13, label %16

13:                                               ; preds = %2
  %14 = load ptr, ptr %7, align 8
  call void (ptr, ...) @cmdarg_err(ptr noundef @.str, ptr noundef %14)
  %15 = load ptr, ptr %7, align 8
  call void @g_free(ptr noundef %15)
  call void @exit(i32 noundef 1) #8
  unreachable

16:                                               ; preds = %2
  %17 = load ptr, ptr %5, align 8
  %18 = load ptr, ptr %6, align 8
  call void @init_stat_table(ptr noundef %17, ptr noundef %18)
  call void @llvm.lifetime.end.p0(i64 8, ptr %7) #7
  call void @llvm.lifetime.end.p0(i64 8, ptr %6) #7
  call void @llvm.lifetime.end.p0(i64 8, ptr %5) #7
  ret void
}