; Function Attrs: null_pointer_is_valid sspstrong uwtable
define internal void @simple_stat_init(ptr noundef %0, ptr noundef %1) #0 {
  %3 = alloca ptr, align 8
  %4 = alloca ptr, align 8
  call void @llvm.lifetime.start.p0(i64 8, ptr nonnull %3) #6
  store ptr null, ptr %3, align 8
  call void @llvm.lifetime.start.p0(i64 8, ptr nonnull %4) #6
  store ptr null, ptr %4, align 8
  call void @stat_tap_get_filter(ptr noundef %1, ptr noundef %0, ptr noundef nonnull %3, ptr noundef nonnull %4)
  %5 = load ptr, ptr %4, align 8
  %.not = icmp eq ptr %5, null
  br i1 %.not, label %8, label %6

6:                                                ; preds = %2
  call void (ptr, ...) @cmdarg_err(ptr noundef nonnull @.str, ptr noundef nonnull %5)
  %7 = load ptr, ptr %4, align 8
  call void @g_free(ptr noundef %7)
  call void @exit(i32 noundef 1) #7
  unreachable

8:                                                ; preds = %2
  %9 = load ptr, ptr %3, align 8
  %10 = call noalias dereferenceable_or_null(24) ptr @g_malloc0(i64 noundef 24) #8
  %11 = call noalias ptr @g_strdup(ptr noundef %9)
  store ptr %11, ptr %10, align 8
  %12 = getelementptr inbounds nuw i8, ptr %10, i64 8
  store ptr %1, ptr %12, align 8
  %13 = getelementptr inbounds nuw i8, ptr %10, i64 16
  store ptr %10, ptr %13, align 8
  %14 = getelementptr inbounds nuw i8, ptr %1, i64 32
  %15 = load ptr, ptr %14, align 8
  call void %15(ptr noundef %1)
  %16 = getelementptr inbounds nuw i8, ptr %1, i64 16
  %17 = load ptr, ptr %16, align 8
  %18 = getelementptr inbounds nuw i8, ptr %1, i64 40
  %19 = load ptr, ptr %18, align 8
  %20 = call ptr @register_tap_listener(ptr noundef %17, ptr noundef nonnull %12, ptr noundef %9, i32 noundef 0, ptr noundef null, ptr noundef %19, ptr noundef nonnull @simple_draw, ptr noundef nonnull @simple_finish)
  %.not.i = icmp eq ptr %20, null
  br i1 %.not.i, label %init_stat_table.exit, label %21

21:                                               ; preds = %8
  %22 = load ptr, ptr %20, align 8
  call void (ptr, ...) @cmdarg_err(ptr noundef nonnull @.str.1, ptr noundef %22)
  %23 = call ptr @g_string_free(ptr noundef nonnull %20, i32 noundef 1)
  call void @exit(i32 noundef 1) #7
  unreachable

init_stat_table.exit:                             ; preds = %8
  call void @llvm.lifetime.end.p0(i64 8, ptr nonnull %4) #6
  call void @llvm.lifetime.end.p0(i64 8, ptr nonnull %3) #6
  ret void
}